; Function Attrs: null_pointer_is_valid sspstrong uwtable
define internal fastcc i32 @dissect_kafka_leave_group_response(ptr noundef %0, ptr noundef %1, ptr noundef %2, i32 noundef %3, i16 noundef signext %4) unnamed_addr #0 {
  %6 = alloca ptr, align 8
  call void @llvm.lifetime.start.p0(i64 8, ptr nonnull %6) #9
  %7 = icmp sgt i16 %4, 0
  br i1 %7, label %8, label %12

8:                                                ; preds = %5
  %9 = load i32, ptr @hf_kafka_throttle_time, align 4
  %10 = tail call ptr @proto_tree_add_item(ptr noundef %2, i32 noundef %9, ptr noundef %0, i32 noundef %3, i32 noundef 4, i32 noundef 0)
  %11 = add i32 %3, 4
  br label %12

12:                                               ; preds = %8, %5
  %.0 = phi i32 [ %11, %8 ], [ %3, %5 ]
  %13 = tail call zeroext i16 @tvb_get_ntohs(ptr noundef %0, i32 noundef %.0)
  %14 = load i32, ptr @hf_kafka_error, align 4
  %15 = tail call ptr @proto_tree_add_item(ptr noundef %2, i32 noundef %14, ptr noundef %0, i32 noundef %.0, i32 noundef 2, i32 noundef 0)
  %.not.i.i = icmp eq i16 %13, 0
  br i1 %.not.i.i, label %dissect_kafka_error.exit, label %16

16:                                               ; preds = %12
  %17 = getelementptr inbounds nuw i8, ptr %1, i64 8
  %18 = load ptr, ptr %17, align 8
  %19 = sext i16 %13 to i32
  %20 = tail call ptr @val_to_str(i32 noundef %19, ptr noundef nonnull @kafka_errors, ptr noundef nonnull @.str.628)
  tail call void (ptr, i32, ptr, ...) @col_append_fstr(ptr noundef %18, i32 noundef 25, ptr noundef nonnull @.str.742, ptr noundef %20)
  br label %dissect_kafka_error.exit

dissect_kafka_error.exit:                         ; preds = %12, %16
  %21 = add i32 %.0, 2
  %22 = icmp sgt i16 %4, 2
  br i1 %22, label %23, label %.thread

23:                                               ; preds = %dissect_kafka_error.exit
  %24 = load i32, ptr @ett_kafka_group_members, align 4
  %25 = call ptr @proto_tree_add_subtree(ptr noundef %2, ptr noundef %0, i32 noundef %21, i32 noundef -1, i32 noundef %24, ptr noundef nonnull %6, ptr noundef nonnull @.str.707)
  %26 = icmp ne i16 %4, 3
  %27 = zext i1 %26 to i32
  %28 = call fastcc i32 @dissect_kafka_array(ptr noundef %25, ptr noundef %0, ptr noundef %1, i32 noundef %21, i32 noundef %27, i16 noundef signext %4, ptr noundef nonnull @dissect_kafka_leave_group_response_member, ptr noundef null)
  %29 = load ptr, ptr %6, align 8
  call void @proto_item_set_end(ptr noundef %29, ptr noundef %0, i32 noundef %28)
  %.not = icmp eq i16 %4, 3
  br i1 %.not, label %.thread, label %30

30:                                               ; preds = %23
  %31 = call fastcc i32 @dissect_kafka_tagged_fields(ptr noundef %0, ptr noundef %1, ptr noundef %2, i32 noundef %28)
  br label %.thread

.thread:                                          ; preds = %dissect_kafka_error.exit, %30, %23
  %.2 = phi i32 [ %31, %30 ], [ %28, %23 ], [ %21, %dissect_kafka_error.exit ]
  call void @llvm.lifetime.end.p0(i64 8, ptr nonnull %6) #9
  ret i32 %.2
}